target datalayout = "e-m:e-p270:32:32-p271:32:32-p272:64:64-i64:64-i128:128-f80:128-n8:16:32:64-S128"
target triple = "x86_64-pc-linux-gnu"

@.str.4 = private unnamed_addr constant [19 x i8] c"tiny aligned block\00", align 1

; Function Attrs: nounwind uwtable
define internal void @xor_block(ptr noundef %0, ptr noundef %1, i32 noundef %2, i32 noundef %3, ptr noundef %4) #0 {
  %6 = alloca ptr, align 8
  %7 = alloca ptr, align 8
  %8 = alloca i32, align 4
  %9 = alloca i32, align 4
  %10 = alloca ptr, align 8
  %11 = alloca ptr, align 8
  %12 = alloca ptr, align 8
  %13 = alloca i32, align 4
  store ptr %0, ptr %6, align 8, !tbaa !112
  store ptr %1, ptr %7, align 8, !tbaa !112
  store i32 %2, ptr %8, align 4, !tbaa !34
  store i32 %3, ptr %9, align 4, !tbaa !34
  store ptr %4, ptr %10, align 8, !tbaa !91
  call void @llvm.lifetime.start.p0(i64 8, ptr %11) #10
  %14 = load ptr, ptr %6, align 8, !tbaa !112
  store ptr %14, ptr %11, align 8, !tbaa !91
  call void @llvm.lifetime.start.p0(i64 8, ptr %12) #10
  %15 = load ptr, ptr %7, align 8, !tbaa !112
  store ptr %15, ptr %12, align 8, !tbaa !91
  call void @llvm.lifetime.start.p0(i64 4, ptr %13) #10
  %16 = load ptr, ptr %10, align 8, !tbaa !91
  %17 = load i32, ptr %16, align 4, !tbaa !34
  store i32 %17, ptr %13, align 4, !tbaa !34
  %18 = load i32, ptr %8, align 4, !tbaa !34
  %19 = lshr i32 %18, 2
  store i32 %19, ptr %8, align 4, !tbaa !34
  br label %20

20:                                               ; preds = %23, %5
  %21 = load i32, ptr %8, align 4, !tbaa !34
  %22 = icmp ugt i32 %21, 0
  br i1 %22, label %23, label %38

23:                                               ; preds = %20
  %24 = load ptr, ptr %11, align 8, !tbaa !91
  %25 = load i32, ptr %24, align 4, !tbaa !34
  %26 = load i32, ptr %13, align 4, !tbaa !34
  %27 = xor i32 %25, %26
  %28 = load ptr, ptr %12, align 8, !tbaa !91
  store i32 %27, ptr %28, align 4, !tbaa !34
  %29 = load i32, ptr %9, align 4, !tbaa !34
  %30 = load i32, ptr %13, align 4, !tbaa !34
  %31 = add i32 %30, %29
  store i32 %31, ptr %13, align 4, !tbaa !34
  %32 = load ptr, ptr %11, align 8, !tbaa !91
  %33 = getelementptr inbounds nuw i32, ptr %32, i32 1
  store ptr %33, ptr %11, align 8, !tbaa !91
  %34 = load ptr, ptr %12, align 8, !tbaa !91
  %35 = getelementptr inbounds nuw i32, ptr %34, i32 1
  store ptr %35, ptr %12, align 8, !tbaa !91
  %36 = load i32, ptr %8, align 4, !tbaa !34
  %37 = add i32 %36, -1
  store i32 %37, ptr %8, align 4, !tbaa !34
  br label %20, !llvm.loop !113

38:                                               ; preds = %20
  %39 = load i32, ptr %13, align 4, !tbaa !34
  %40 = load ptr, ptr %10, align 8, !tbaa !91
  store i32 %39, ptr %40, align 4, !tbaa !34
  call void @llvm.lifetime.end.p0(i64 4, ptr %13) #10
  call void @llvm.lifetime.end.p0(i64 8, ptr %12) #10
  call void @llvm.lifetime.end.p0(i64 8, ptr %11) #10
  ret void
}

; Function Attrs: nounwind uwtable
define internal i32 @get_v(ptr noundef %0, i32 noundef %1) #0 {
  %3 = alloca i32, align 4
  %4 = alloca ptr, align 8
  %5 = alloca i32, align 4
  %6 = alloca i32, align 4
  %7 = alloca ptr, align 8
  %8 = alloca i32, align 4
  store ptr %0, ptr %4, align 8, !tbaa !35
  store i32 %1, ptr %5, align 4, !tbaa !34
  call void @llvm.lifetime.start.p0(i64 4, ptr %6) #10
  store i32 0, ptr %6, align 4, !tbaa !34
  call void @llvm.lifetime.start.p0(i64 8, ptr %7) #10
  %9 = load ptr, ptr %4, align 8, !tbaa !35
  %10 = load i32, ptr %5, align 4, !tbaa !34
  %11 = sext i32 %10 to i64
  %12 = getelementptr inbounds i8, ptr %9, i64 %11
  store ptr %12, ptr %7, align 8, !tbaa !35
  br label %13

13:                                               ; preds = %35, %2
  %14 = load ptr, ptr %4, align 8, !tbaa !35
  %15 = load ptr, ptr %7, align 8, !tbaa !35
  %16 = icmp uge ptr %14, %15
  br i1 %16, label %24, label %17

17:                                               ; preds = %13
  %18 = load i32, ptr %6, align 4, !tbaa !34
  %19 = load ptr, ptr %4, align 8, !tbaa !35
  %20 = load i8, ptr %19, align 1, !tbaa !84
  %21 = zext i8 %20 to i32
  %22 = sub i32 33554431, %21
  %23 = icmp uge i32 %18, %22
  br i1 %23, label %24, label %26

24:                                               ; preds = %17, %13
  %25 = load i32, ptr %6, align 4, !tbaa !34
  store i32 %25, ptr %3, align 4
  store i32 1, ptr %8, align 4
  br label %44

26:                                               ; preds = %17
  %27 = load i32, ptr %6, align 4, !tbaa !34
  %28 = shl i32 %27, 7
  store i32 %28, ptr %6, align 4, !tbaa !34
  %29 = load ptr, ptr %4, align 8, !tbaa !35
  %30 = load i8, ptr %29, align 1, !tbaa !84
  %31 = zext i8 %30 to i32
  %32 = and i32 %31, 127
  %33 = load i32, ptr %6, align 4, !tbaa !34
  %34 = add i32 %33, %32
  store i32 %34, ptr %6, align 4, !tbaa !34
  br label %35

35:                                               ; preds = %26
  %36 = load ptr, ptr %4, align 8, !tbaa !35
  %37 = getelementptr inbounds nuw i8, ptr %36, i32 1
  store ptr %37, ptr %4, align 8, !tbaa !35
  %38 = load i8, ptr %36, align 1, !tbaa !84
  %39 = zext i8 %38 to i32
  %40 = and i32 %39, 128
  %41 = icmp ne i32 %40, 0
  br i1 %41, label %13, label %42, !llvm.loop !111

42:                                               ; preds = %35
  %43 = load i32, ptr %6, align 4, !tbaa !34
  store i32 %43, ptr %3, align 4
  store i32 1, ptr %8, align 4
  br label %44

44:                                               ; preds = %42, %24
  call void @llvm.lifetime.end.p0(i64 8, ptr %7) #10
  call void @llvm.lifetime.end.p0(i64 4, ptr %6) #10
  %45 = load i32, ptr %3, align 4
  ret i32 %45
}

; Function Attrs: nounwind uwtable
define internal void @decode_block(ptr noundef %0, ptr noundef %1, i32 noundef %2, i32 noundef %3, ptr noundef %4, i32 noundef %5) #0 {
  %7 = alloca ptr, align 8
  %8 = alloca ptr, align 8
  %9 = alloca i32, align 4
  %10 = alloca i32, align 4
  %11 = alloca ptr, align 8
  %12 = alloca i32, align 4
  %13 = alloca i32, align 4
  %14 = alloca [4 x i8], align 1
  %15 = alloca i32, align 4
  %16 = alloca i32, align 4
  %17 = alloca i32, align 4
  store ptr %0, ptr %7, align 8, !tbaa !35
  store ptr %1, ptr %8, align 8, !tbaa !35
  store i32 %2, ptr %9, align 4, !tbaa !34
  store i32 %3, ptr %10, align 4, !tbaa !34
  store ptr %4, ptr %11, align 8, !tbaa !91
  store i32 %5, ptr %12, align 4, !tbaa !34
  call void @llvm.lifetime.start.p0(i64 4, ptr %13) #10
  %18 = load i32, ptr %9, align 4, !tbaa !34
  store i32 %18, ptr %13, align 4, !tbaa !34
  call void @llvm.lifetime.start.p0(i64 4, ptr %14) #10
  call void @llvm.lifetime.start.p0(i64 4, ptr %15) #10
  %19 = load i32, ptr %9, align 4, !tbaa !34
  %20 = icmp ne i32 %19, 0
  br i1 %20, label %22, label %21

21:                                               ; preds = %6
  store i32 1, ptr %16, align 4
  br label %103

22:                                               ; preds = %6
  %23 = load i32, ptr %12, align 4, !tbaa !34
  %24 = and i32 %23, 3
  store i32 %24, ptr %12, align 4, !tbaa !34
  %25 = load i32, ptr %12, align 4, !tbaa !34
  %26 = sub nsw i32 4, %25
  %27 = and i32 %26, 3
  store i32 %27, ptr %15, align 4, !tbaa !34
  %28 = load i32, ptr %12, align 4, !tbaa !34
  %29 = icmp ne i32 %28, 0
  br i1 %29, label %30, label %61

30:                                               ; preds = %22
  call void @llvm.lifetime.start.p0(i64 4, ptr %17) #10
  %31 = load ptr, ptr %11, align 8, !tbaa !91
  %32 = load i32, ptr %31, align 4, !tbaa !34
  %33 = load i32, ptr %10, align 4, !tbaa !34
  %34 = sub i32 %32, %33
  store i32 %34, ptr %17, align 4, !tbaa !34
  %35 = load i32, ptr %15, align 4, !tbaa !34
  %36 = load i32, ptr %13, align 4, !tbaa !34
  %37 = icmp ugt i32 %35, %36
  br i1 %37, label %38, label %40

38:                                               ; preds = %30
  %39 = load i32, ptr %13, align 4, !tbaa !34
  store i32 %39, ptr %15, align 4, !tbaa !34
  call void (ptr, ptr, ...) @avpriv_request_sample(ptr noundef null, ptr noundef @.str.4)
  br label %40

40:                                               ; preds = %38, %30
  %41 = getelementptr inbounds [4 x i8], ptr %14, i64 0, i64 0
  %42 = load i32, ptr %12, align 4, !tbaa !34
  %43 = sext i32 %42 to i64
  %44 = getelementptr inbounds i8, ptr %41, i64 %43
  %45 = load ptr, ptr %7, align 8, !tbaa !35
  %46 = load i32, ptr %15, align 4, !tbaa !34
  %47 = sext i32 %46 to i64
  call void @llvm.memcpy.p0.p0.i64(ptr align 1 %44, ptr align 1 %45, i64 %47, i1 false)
  %48 = getelementptr inbounds [4 x i8], ptr %14, i64 0, i64 0
  %49 = getelementptr inbounds [4 x i8], ptr %14, i64 0, i64 0
  %50 = load i32, ptr %10, align 4, !tbaa !34
  call void @xor_block(ptr noundef %48, ptr noundef %49, i32 noundef 4, i32 noundef %50, ptr noundef %17)
  %51 = load ptr, ptr %8, align 8, !tbaa !35
  %52 = getelementptr inbounds [4 x i8], ptr %14, i64 0, i64 0
  %53 = load i32, ptr %12, align 4, !tbaa !34
  %54 = sext i32 %53 to i64
  %55 = getelementptr inbounds i8, ptr %52, i64 %54
  %56 = load i32, ptr %15, align 4, !tbaa !34
  %57 = sext i32 %56 to i64
  call void @llvm.memcpy.p0.p0.i64(ptr align 1 %51, ptr align 1 %55, i64 %57, i1 false)
  %58 = load i32, ptr %15, align 4, !tbaa !34
  %59 = load i32, ptr %13, align 4, !tbaa !34
  %60 = sub i32 %59, %58
  store i32 %60, ptr %13, align 4, !tbaa !34
  call void @llvm.lifetime.end.p0(i64 4, ptr %17) #10
  br label %61

61:                                               ; preds = %40, %22
  %62 = load i32, ptr %13, align 4, !tbaa !34
  %63 = icmp uge i32 %62, 4
  br i1 %63, label %64, label %79

64:                                               ; preds = %61
  %65 = load ptr, ptr %7, align 8, !tbaa !35
  %66 = load i32, ptr %15, align 4, !tbaa !34
  %67 = sext i32 %66 to i64
  %68 = getelementptr inbounds i8, ptr %65, i64 %67
  %69 = load ptr, ptr %8, align 8, !tbaa !35
  %70 = load i32, ptr %15, align 4, !tbaa !34
  %71 = sext i32 %70 to i64
  %72 = getelementptr inbounds i8, ptr %69, i64 %71
  %73 = load i32, ptr %13, align 4, !tbaa !34
  %74 = and i32 %73, -4
  %75 = load i32, ptr %10, align 4, !tbaa !34
  %76 = load ptr, ptr %11, align 8, !tbaa !91
  call void @xor_block(ptr noundef %68, ptr noundef %72, i32 noundef %74, i32 noundef %75, ptr noundef %76)
  %77 = load i32, ptr %13, align 4, !tbaa !34
  %78 = and i32 %77, 3
  store i32 %78, ptr %13, align 4, !tbaa !34
  br label %79

79:                                               ; preds = %64, %61
  %80 = load i32, ptr %13, align 4, !tbaa !34
  %81 = icmp ne i32 %80, 0
  br i1 %81, label %82, label %102

82:                                               ; preds = %79
  %83 = load i32, ptr %13, align 4, !tbaa !34
  %84 = load i32, ptr %9, align 4, !tbaa !34
  %85 = sub i32 %84, %83
  store i32 %85, ptr %9, align 4, !tbaa !34
  %86 = getelementptr inbounds [4 x i8], ptr %14, i64 0, i64 0
  %87 = load ptr, ptr %7, align 8, !tbaa !35
  %88 = load i32, ptr %9, align 4, !tbaa !34
  %89 = zext i32 %88 to i64
  %90 = getelementptr inbounds nuw i8, ptr %87, i64 %89
  %91 = load i32, ptr %13, align 4, !tbaa !34
  %92 = zext i32 %91 to i64
  call void @llvm.memcpy.p0.p0.i64(ptr align 1 %86, ptr align 1 %90, i64 %92, i1 false)
  %93 = load i32, ptr %10, align 4, !tbaa !34
  %94 = load ptr, ptr %11, align 8, !tbaa !91
  call void @xor_block(ptr noundef %14, ptr noundef %14, i32 noundef 4, i32 noundef %93, ptr noundef %94)
  %95 = load ptr, ptr %8, align 8, !tbaa !35
  %96 = load i32, ptr %9, align 4, !tbaa !34
  %97 = zext i32 %96 to i64
  %98 = getelementptr inbounds nuw i8, ptr %95, i64 %97
  %99 = getelementptr inbounds [4 x i8], ptr %14, i64 0, i64 0
  %100 = load i32, ptr %13, align 4, !tbaa !34
  %101 = zext i32 %100 to i64
  call void @llvm.memcpy.p0.p0.i64(ptr align 1 %98, ptr align 1 %99, i64 %101, i1 false)
  br label %102

102:                                              ; preds = %82, %79
  store i32 0, ptr %16, align 4
  br label %103

103:                                              ; preds = %102, %21
  call void @llvm.lifetime.end.p0(i64 4, ptr %15) #10
  call void @llvm.lifetime.end.p0(i64 4, ptr %14) #10
  call void @llvm.lifetime.end.p0(i64 4, ptr %13) #10
  %104 = load i32, ptr %16, align 4
  switch i32 %104, label %106 [
    i32 0, label %105
    i32 1, label %105
  ]

105:                                              ; preds = %103, %103
  ret void

106:                                              ; preds = %103
  unreachable
}

; Function Attrs: nounwind uwtable
define internal ptr @read_vblock(ptr noundef %0, ptr noundef %1, i32 noundef %2, ptr noundef %3, i32 noundef %4) #0 {
  %6 = alloca ptr, align 8
  %7 = alloca ptr, align 8
  %8 = alloca ptr, align 8
  %9 = alloca i32, align 4
  %10 = alloca ptr, align 8
  %11 = alloca i32, align 4
  %12 = alloca [4 x i8], align 1
  %13 = alloca ptr, align 8
  %14 = alloca i32, align 4
  %15 = alloca i32, align 4
  store ptr %0, ptr %7, align 8, !tbaa !33
  store ptr %1, ptr %8, align 8, !tbaa !91
  store i32 %2, ptr %9, align 4, !tbaa !34
  store ptr %3, ptr %10, align 8, !tbaa !91
  store i32 %4, ptr %11, align 4, !tbaa !34
  call void @llvm.lifetime.start.p0(i64 4, ptr %12) #10
  call void @llvm.lifetime.start.p0(i64 8, ptr %13) #10
  call void @llvm.lifetime.start.p0(i64 4, ptr %14) #10
  %16 = load ptr, ptr %7, align 8, !tbaa !33
  %17 = getelementptr inbounds [4 x i8], ptr %12, i64 0, i64 0
  %18 = call i32 @avio_read(ptr noundef %16, ptr noundef %17, i32 noundef 4)
  %19 = icmp ne i32 %18, 4
  br i1 %19, label %20, label %21

20:                                               ; preds = %5
  store ptr null, ptr %6, align 8
  store i32 1, ptr %15, align 4
  br label %66

21:                                               ; preds = %5
  %22 = getelementptr inbounds [4 x i8], ptr %12, i64 0, i64 0
  %23 = getelementptr inbounds [4 x i8], ptr %12, i64 0, i64 0
  %24 = load i32, ptr %9, align 4, !tbaa !34
  %25 = load ptr, ptr %10, align 8, !tbaa !91
  %26 = load i32, ptr %11, align 4, !tbaa !34
  call void @decode_block(ptr noundef %22, ptr noundef %23, i32 noundef 4, i32 noundef %24, ptr noundef %25, i32 noundef %26)
  %27 = getelementptr inbounds [4 x i8], ptr %12, i64 0, i64 0
  %28 = call i32 @get_v(ptr noundef %27, i32 noundef 4)
  store i32 %28, ptr %14, align 4, !tbaa !34
  %29 = load i32, ptr %14, align 4, !tbaa !34
  %30 = icmp ult i32 %29, 4
  br i1 %30, label %31, label %32

31:                                               ; preds = %21
  store ptr null, ptr %6, align 8
  store i32 1, ptr %15, align 4
  br label %66

32:                                               ; preds = %21
  %33 = load i32, ptr %14, align 4, !tbaa !34
  %34 = zext i32 %33 to i64
  %35 = call noalias ptr @av_malloc(i64 noundef %34)
  store ptr %35, ptr %13, align 8, !tbaa !35
  %36 = load ptr, ptr %13, align 8, !tbaa !35
  %37 = icmp ne ptr %36, null
  br i1 %37, label %39, label %38

38:                                               ; preds = %32
  store ptr null, ptr %6, align 8
  store i32 1, ptr %15, align 4
  br label %66

39:                                               ; preds = %32
  %40 = load i32, ptr %14, align 4, !tbaa !34
  %41 = load ptr, ptr %8, align 8, !tbaa !91
  store i32 %40, ptr %41, align 4, !tbaa !34
  %42 = load i32, ptr %14, align 4, !tbaa !34
  %43 = sub i32 %42, 4
  store i32 %43, ptr %14, align 4, !tbaa !34
  %44 = load ptr, ptr %13, align 8, !tbaa !35
  %45 = getelementptr inbounds [4 x i8], ptr %12, i64 0, i64 0
  call void @llvm.memcpy.p0.p0.i64(ptr align 1 %44, ptr align 1 %45, i64 4, i1 false)
  %46 = load ptr, ptr %7, align 8, !tbaa !33
  %47 = load ptr, ptr %13, align 8, !tbaa !35
  %48 = getelementptr inbounds i8, ptr %47, i64 4
  %49 = load i32, ptr %14, align 4, !tbaa !34
  %50 = call i32 @avio_read(ptr noundef %46, ptr noundef %48, i32 noundef %49)
  %51 = load i32, ptr %14, align 4, !tbaa !34
  %52 = icmp eq i32 %50, %51
  br i1 %52, label %53, label %62

53:                                               ; preds = %39
  %54 = load ptr, ptr %13, align 8, !tbaa !35
  %55 = getelementptr inbounds i8, ptr %54, i64 4
  %56 = load ptr, ptr %13, align 8, !tbaa !35
  %57 = getelementptr inbounds i8, ptr %56, i64 4
  %58 = load i32, ptr %14, align 4, !tbaa !34
  %59 = load i32, ptr %9, align 4, !tbaa !34
  %60 = load ptr, ptr %10, align 8, !tbaa !91
  %61 = load i32, ptr %11, align 4, !tbaa !34
  call void @decode_block(ptr noundef %55, ptr noundef %57, i32 noundef %58, i32 noundef %59, ptr noundef %60, i32 noundef %61)
  br label %64

62:                                               ; preds = %39
  %63 = load ptr, ptr %13, align 8, !tbaa !35
  call void @av_free(ptr noundef %63)
  store ptr null, ptr %13, align 8, !tbaa !35
  br label %64

64:                                               ; preds = %62, %53
  %65 = load ptr, ptr %13, align 8, !tbaa !35
  store ptr %65, ptr %6, align 8
  store i32 1, ptr %15, align 4
  br label %66

66:                                               ; preds = %64, %38, %31, %20
  call void @llvm.lifetime.end.p0(i64 4, ptr %14) #10
  call void @llvm.lifetime.end.p0(i64 8, ptr %13) #10
  call void @llvm.lifetime.end.p0(i64 4, ptr %12) #10
  %67 = load ptr, ptr %6, align 8
  ret ptr %67
}