; Function Attrs: nounwind uwtable
define internal fastcc ptr @read_vblock(ptr noundef %0, ptr noundef nonnull writeonly captures(none) %1, i32 noundef %2, ptr noundef nonnull captures(none) %3, i32 noundef %4) unnamed_addr #1 {
  %6 = alloca [4 x i8], align 1
  %7 = alloca [4 x i8], align 1
  %8 = alloca [4 x i8], align 4
  call void @llvm.lifetime.start.p0(i64 4, ptr nonnull %8) #9
  %9 = call i32 @avio_read(ptr noundef %0, ptr noundef nonnull %8, i32 noundef 4) #9
  %.not = icmp eq i32 %9, 4
  br i1 %.not, label %10, label %86

10:                                               ; preds = %5
  call void @llvm.lifetime.start.p0(i64 4, ptr nonnull %7) #9
  %11 = and i32 %4, 3
  %12 = sub i32 0, %4
  %13 = and i32 %12, 3
  %.not43.i = icmp eq i32 %11, 0
  %.pre = load i32, ptr %3, align 4, !tbaa !27
  br i1 %.not43.i, label %..thread_crit_edge, label %14

..thread_crit_edge:                               ; preds = %10
  %.pre55 = zext nneg i32 %13 to i64
  br label %.thread

14:                                               ; preds = %10
  %15 = sub i32 %.pre, %2
  %16 = zext nneg i32 %11 to i64
  %17 = getelementptr inbounds nuw i8, ptr %7, i64 %16
  %18 = zext nneg i32 %13 to i64
  call void @llvm.memcpy.p0.p0.i64(ptr nonnull align 1 %17, ptr nonnull readonly align 4 %8, i64 %18, i1 false)
  %19 = load i32, ptr %7, align 4, !tbaa !27
  %20 = xor i32 %19, %15
  store i32 %20, ptr %7, align 4, !tbaa !27
  call void @llvm.memcpy.p0.p0.i64(ptr nonnull align 4 %8, ptr nonnull align 1 %17, i64 %18, i1 false)
  %21 = icmp eq i32 %13, 0
  br i1 %21, label %.thread, label %.lr.ph.i52.i

.thread:                                          ; preds = %..thread_crit_edge, %14
  %.pre-phi = phi i64 [ %.pre55, %..thread_crit_edge ], [ 0, %14 ]
  %22 = getelementptr inbounds nuw i8, ptr %8, i64 %.pre-phi
  %23 = add i32 %.pre, %2
  %24 = load i32, ptr %22, align 4, !tbaa !27
  %25 = xor i32 %24, %.pre
  store i32 %25, ptr %22, align 4, !tbaa !27
  store i32 %23, ptr %3, align 4, !tbaa !27
  br label %decode_block.exit

.lr.ph.i52.i:                                     ; preds = %14
  %26 = sub nuw nsw i32 4, %13
  %27 = getelementptr inbounds nuw i8, ptr %8, i64 %18
  %28 = zext nneg i32 %26 to i64
  call void @llvm.memcpy.p0.p0.i64(ptr noundef nonnull align 1 dereferenceable(1) %7, ptr noundef nonnull readonly align 1 dereferenceable(1) %27, i64 %28, i1 false)
  %29 = add i32 %.pre, %2
  %30 = load i32, ptr %7, align 4, !tbaa !27
  %31 = xor i32 %30, %.pre
  store i32 %31, ptr %7, align 4, !tbaa !27
  store i32 %29, ptr %3, align 4, !tbaa !27
  call void @llvm.memcpy.p0.p0.i64(ptr noundef nonnull align 1 dereferenceable(1) %27, ptr noundef nonnull align 1 dereferenceable(1) %7, i64 %28, i1 false)
  br label %decode_block.exit

decode_block.exit:                                ; preds = %.thread, %.lr.ph.i52.i
  call void @llvm.lifetime.end.p0(i64 4, ptr nonnull %7) #9
  br label %32

32:                                               ; preds = %37, %decode_block.exit
  %.013.i.idx = phi i64 [ 0, %decode_block.exit ], [ %.013.i.add, %37 ]
  %.012.i = phi i32 [ 0, %decode_block.exit ], [ %40, %37 ]
  %exitcond.not = icmp eq i64 %.013.i.idx, 4
  br i1 %exitcond.not, label %get_v.exit, label %33

33:                                               ; preds = %32
  %.013.i.ptr = getelementptr inbounds nuw i8, ptr %8, i64 %.013.i.idx
  %34 = load i8, ptr %.013.i.ptr, align 1, !tbaa !28
  %35 = zext i8 %34 to i32
  %36 = xor i32 %35, 33554431
  %.not14.i = icmp ult i32 %.012.i, %36
  br i1 %.not14.i, label %37, label %get_v.exit.thread

37:                                               ; preds = %33
  %38 = shl nuw i32 %.012.i, 7
  %39 = and i32 %35, 127
  %40 = or disjoint i32 %39, %38
  %.013.i.add = add nuw nsw i64 %.013.i.idx, 1
  %.not15.i = icmp sgt i8 %34, -1
  br i1 %.not15.i, label %get_v.exit, label %32, !llvm.loop !94

get_v.exit:                                       ; preds = %32, %37
  %.0.i28 = phi i32 [ %.012.i, %32 ], [ %40, %37 ]
  %41 = icmp ult i32 %.0.i28, 4
  br i1 %41, label %86, label %get_v.exit.thread

get_v.exit.thread:                                ; preds = %33, %get_v.exit
  %.0.i2850 = phi i32 [ %.0.i28, %get_v.exit ], [ %.012.i, %33 ]
  %42 = zext i32 %.0.i2850 to i64
  %43 = call noalias ptr @av_malloc(i64 noundef %42) #9
  %.not27 = icmp eq ptr %43, null
  br i1 %.not27, label %86, label %44

44:                                               ; preds = %get_v.exit.thread
  store i32 %.0.i2850, ptr %1, align 4, !tbaa !27
  %45 = add i32 %.0.i2850, -4
  %46 = load i32, ptr %8, align 4
  store i32 %46, ptr %43, align 1
  %47 = getelementptr inbounds nuw i8, ptr %43, i64 4
  %48 = call i32 @avio_read(ptr noundef %0, ptr noundef nonnull %47, i32 noundef %45) #9
  %49 = icmp eq i32 %48, %45
  br i1 %49, label %50, label %85

50:                                               ; preds = %44
  call void @llvm.lifetime.start.p0(i64 4, ptr nonnull %6) #9
  %.not.i29 = icmp eq i32 %45, 0
  br i1 %.not.i29, label %decode_block.exit43, label %51

51:                                               ; preds = %50
  br i1 %.not43.i, label %63, label %52

52:                                               ; preds = %51
  %53 = load i32, ptr %3, align 4, !tbaa !27
  %54 = sub i32 %53, %2
  %55 = icmp ugt i32 %13, %45
  br i1 %55, label %56, label %.lr.ph.i.i

56:                                               ; preds = %52
  call void (ptr, ptr, ...) @avpriv_request_sample(ptr noundef null, ptr noundef nonnull @.str.4) #9
  br label %.lr.ph.i.i

.lr.ph.i.i:                                       ; preds = %56, %52
  %.1.i = phi i32 [ %45, %56 ], [ %13, %52 ]
  %57 = zext nneg i32 %11 to i64
  %58 = getelementptr inbounds nuw i8, ptr %6, i64 %57
  %59 = zext nneg i32 %.1.i to i64
  call void @llvm.memcpy.p0.p0.i64(ptr nonnull align 1 %58, ptr nonnull readonly align 1 %47, i64 %59, i1 false)
  %60 = load i32, ptr %6, align 4, !tbaa !27
  %61 = xor i32 %60, %54
  store i32 %61, ptr %6, align 4, !tbaa !27
  call void @llvm.memcpy.p0.p0.i64(ptr nonnull align 1 %47, ptr nonnull align 1 %58, i64 %59, i1 false)
  %62 = sub i32 %45, %.1.i
  br label %63

63:                                               ; preds = %.lr.ph.i.i, %51
  %.038.i31 = phi i32 [ %62, %.lr.ph.i.i ], [ %45, %51 ]
  %.0.i32 = phi i32 [ %.1.i, %.lr.ph.i.i ], [ %13, %51 ]
  %64 = icmp ugt i32 %.038.i31, 3
  br i1 %64, label %65, label %76

65:                                               ; preds = %63
  %66 = zext nneg i32 %.0.i32 to i64
  %67 = getelementptr inbounds nuw i8, ptr %47, i64 %66
  %68 = lshr i32 %.038.i31, 2
  %69 = load i32, ptr %3, align 4, !tbaa !27
  br label %.lr.ph.i45.i36

.lr.ph.i45.i36:                                   ; preds = %.lr.ph.i45.i36, %65
  %.021.i46.i37 = phi i32 [ %72, %.lr.ph.i45.i36 ], [ %69, %65 ]
  %.01420.i47.i38 = phi ptr [ %73, %.lr.ph.i45.i36 ], [ %67, %65 ]
  %.01618.i49.i40 = phi i32 [ %74, %.lr.ph.i45.i36 ], [ %68, %65 ]
  %70 = load i32, ptr %.01420.i47.i38, align 4, !tbaa !27
  %71 = xor i32 %70, %.021.i46.i37
  store i32 %71, ptr %.01420.i47.i38, align 4, !tbaa !27
  %72 = add i32 %.021.i46.i37, %2
  %73 = getelementptr i8, ptr %.01420.i47.i38, i64 4
  %74 = add nsw i32 %.01618.i49.i40, -1
  %.not.i50.i41 = icmp eq i32 %74, 0
  br i1 %.not.i50.i41, label %xor_block.exit51.i42, label %.lr.ph.i45.i36, !llvm.loop !95

xor_block.exit51.i42:                             ; preds = %.lr.ph.i45.i36
  store i32 %72, ptr %3, align 4, !tbaa !27
  %75 = and i32 %.038.i31, 3
  br label %76

76:                                               ; preds = %xor_block.exit51.i42, %63
  %.139.i33 = phi i32 [ %75, %xor_block.exit51.i42 ], [ %.038.i31, %63 ]
  %.not44.i34 = icmp eq i32 %.139.i33, 0
  br i1 %.not44.i34, label %decode_block.exit43, label %.lr.ph.i52.i35

.lr.ph.i52.i35:                                   ; preds = %76
  %77 = sub i32 %45, %.139.i33
  %78 = zext i32 %77 to i64
  %79 = getelementptr inbounds nuw i8, ptr %47, i64 %78
  %80 = zext nneg i32 %.139.i33 to i64
  call void @llvm.memcpy.p0.p0.i64(ptr nonnull align 1 %6, ptr nonnull readonly align 1 %79, i64 %80, i1 false)
  %81 = load i32, ptr %3, align 4, !tbaa !27
  %82 = add i32 %81, %2
  %83 = load i32, ptr %6, align 4, !tbaa !27
  %84 = xor i32 %83, %81
  store i32 %84, ptr %6, align 4, !tbaa !27
  store i32 %82, ptr %3, align 4, !tbaa !27
  call void @llvm.memcpy.p0.p0.i64(ptr nonnull align 1 %79, ptr nonnull align 1 %6, i64 %80, i1 false)
  br label %decode_block.exit43

decode_block.exit43:                              ; preds = %50, %76, %.lr.ph.i52.i35
  call void @llvm.lifetime.end.p0(i64 4, ptr nonnull %6) #9
  br label %86

85:                                               ; preds = %44
  call void @av_free(ptr noundef nonnull %43) #9
  br label %86

86:                                               ; preds = %decode_block.exit43, %85, %get_v.exit.thread, %get_v.exit, %5
  %.023 = phi ptr [ null, %5 ], [ null, %get_v.exit ], [ null, %get_v.exit.thread ], [ %43, %decode_block.exit43 ], [ null, %85 ]
  call void @llvm.lifetime.end.p0(i64 4, ptr nonnull %8) #9
  ret ptr %.023
}